; Function Attrs: mustprogress nofree nounwind willreturn memory(read, inaccessiblemem: none) uwtable
define noundef signext i8 @_ZNK6icu_7512TimeZoneRule14isEquivalentToERKS0_(ptr noundef nonnull readonly align 8 dereferenceable(80) %this, ptr noundef nonnull readonly align 8 dereferenceable(80) %other) unnamed_addr #7 align 2 {
entry:
  %cmp = icmp eq ptr %this, %other
  br i1 %cmp, label %lor.end, label %typeid.end

typeid.end:                                       ; preds = %entry
  %vtable = load ptr, ptr %this, align 8
  %0 = getelementptr inbounds i8, ptr %vtable, i64 -8
  %1 = load ptr, ptr %0, align 8
  %vtable2 = load ptr, ptr %other, align 8
  %2 = getelementptr inbounds i8, ptr %vtable2, i64 -8
  %3 = load ptr, ptr %2, align 8
  %__name.i = getelementptr inbounds i8, ptr %1, i64 8
  %4 = load ptr, ptr %__name.i, align 8
  %__name2.i = getelementptr inbounds i8, ptr %3, i64 8
  %5 = load ptr, ptr %__name2.i, align 8
  %cmp.i = icmp eq ptr %4, %5
  br i1 %cmp.i, label %land.lhs.true, label %if.end.i

if.end.i:                                         ; preds = %typeid.end
  %6 = load i8, ptr %4, align 1
  %cmp4.not.i = icmp eq i8 %6, 42
  br i1 %cmp4.not.i, label %lor.end, label %_ZNKSt9type_infoeqERKS_.exit

_ZNKSt9type_infoeqERKS_.exit:                     ; preds = %if.end.i
  %7 = load i8, ptr %5, align 1
  %cmp.i.i = icmp eq i8 %7, 42
  %cond.idx.i.i = zext i1 %cmp.i.i to i64
  %cond.i.i = getelementptr inbounds i8, ptr %5, i64 %cond.idx.i.i
  %call6.i = tail call i32 @strcmp(ptr noundef nonnull dereferenceable(1) %4, ptr noundef nonnull dereferenceable(1) %cond.i.i) #16
  %cmp7.i = icmp eq i32 %call6.i, 0
  br i1 %cmp7.i, label %land.lhs.true, label %lor.end

land.lhs.true:                                    ; preds = %typeid.end, %_ZNKSt9type_infoeqERKS_.exit
  %fRawOffset = getelementptr inbounds i8, ptr %this, i64 72
  %8 = load i32, ptr %fRawOffset, align 8
  %fRawOffset3 = getelementptr inbounds i8, ptr %other, i64 72
  %9 = load i32, ptr %fRawOffset3, align 8
  %cmp4 = icmp eq i32 %8, %9
  br i1 %cmp4, label %land.rhs, label %lor.end

land.rhs:                                         ; preds = %land.lhs.true
  %fDSTSavings = getelementptr inbounds i8, ptr %this, i64 76
  %10 = load i32, ptr %fDSTSavings, align 4
  %fDSTSavings5 = getelementptr inbounds i8, ptr %other, i64 76
  %11 = load i32, ptr %fDSTSavings5, align 4
  %cmp6 = icmp eq i32 %10, %11
  %12 = zext i1 %cmp6 to i8
  br label %lor.end

lor.end:                                          ; preds = %if.end.i, %_ZNKSt9type_infoeqERKS_.exit, %land.lhs.true, %land.rhs, %entry
  %conv = phi i8 [ 1, %entry ], [ 0, %land.lhs.true ], [ 0, %_ZNKSt9type_infoeqERKS_.exit ], [ %12, %land.rhs ], [ 0, %if.end.i ]
  ret i8 %conv
}